target datalayout = "e-m:e-p270:32:32-p271:32:32-p272:64:64-i64:64-i128:128-f80:128-n8:16:32:64-S128"
target triple = "x86_64-pc-linux-gnu"

@.str.19 = private unnamed_addr constant [9 x i8] c"tmp_obj_\00", align 1
@stderr = external global ptr, align 8
@.str.20 = private unnamed_addr constant [19 x i8] c"bad sha1 file: %s\0A\00", align 1

; Function Attrs: nounwind uwtable
define internal i32 @prune_cruft(ptr noundef %0, ptr noundef %1, ptr noundef %2) #0 {
  %4 = alloca ptr, align 8
  %5 = alloca ptr, align 8
  %6 = alloca ptr, align 8
  store ptr %0, ptr %4, align 8, !tbaa !11
  store ptr %1, ptr %5, align 8, !tbaa !11
  store ptr %2, ptr %6, align 8, !tbaa !37
  %7 = load ptr, ptr %4, align 8, !tbaa !11
  %8 = call i32 @starts_with(ptr noundef %7, ptr noundef @.str.19)
  %9 = icmp ne i32 %8, 0
  br i1 %9, label %10, label %13

10:                                               ; preds = %3
  %11 = load ptr, ptr %5, align 8, !tbaa !11
  %12 = call i32 @prune_tmp_file(ptr noundef %11)
  br label %17

13:                                               ; preds = %3
  %14 = load ptr, ptr @stderr, align 8, !tbaa !43
  %15 = load ptr, ptr %5, align 8, !tbaa !11
  %16 = call i32 (ptr, ptr, ...) @fprintf(ptr noundef %14, ptr noundef @.str.20, ptr noundef %15) #10
  br label %17

17:                                               ; preds = %13, %10
  ret i32 0
}