; Function Attrs: nounwind uwtable
define internal noundef i32 @prune_cruft(ptr noundef %0, ptr noundef %1, ptr readnone captures(none) %2) #0 {
  %4 = tail call i32 @starts_with(ptr noundef %0, ptr noundef nonnull @.str.19) #12
  %.not = icmp eq i32 %4, 0
  br i1 %.not, label %6, label %5

5:                                                ; preds = %3
  tail call fastcc void @prune_tmp_file(ptr noundef %1)
  br label %9

6:                                                ; preds = %3
  %7 = load ptr, ptr @stderr, align 8, !tbaa !31
  %8 = tail call i32 (ptr, ptr, ...) @fprintf(ptr noundef %7, ptr noundef nonnull @.str.20, ptr noundef %1) #14
  br label %9

9:                                                ; preds = %6, %5
  ret i32 0
}